; Function Attrs: nounwind uwtable
define dso_local void @jw_end(ptr noundef %0) local_unnamed_addr #3 {
  %2 = getelementptr inbounds nuw i8, ptr %0, i64 32
  %3 = load i64, ptr %2, align 8, !tbaa !14
  %.not = icmp eq i64 %3, 0
  br i1 %.not, label %4, label %7

4:                                                ; preds = %1
  %5 = getelementptr inbounds nuw i8, ptr %0, i64 16
  %6 = load ptr, ptr %5, align 8, !tbaa !20
  tail call void (ptr, i32, ptr, ...) @BUG_fl(ptr noundef nonnull @.str.4, i32 noundef 394, ptr noundef nonnull @.str.5, ptr noundef %6) #9
  unreachable

7:                                                ; preds = %1
  %8 = getelementptr inbounds nuw i8, ptr %0, i64 24
  %9 = getelementptr inbounds nuw i8, ptr %0, i64 40
  %10 = load ptr, ptr %9, align 8, !tbaa !17
  %11 = shl i64 %3, 32
  %sext = add i64 %11, -4294967296
  %12 = ashr exact i64 %sext, 32
  %13 = getelementptr inbounds i8, ptr %10, i64 %12
  %14 = load i8, ptr %13, align 1, !tbaa !13
  %15 = load i64, ptr %8, align 8, !tbaa !4
  %spec.select.i = tail call i64 @llvm.usub.sat.i64(i64 %15, i64 1)
  %16 = icmp ugt i64 %12, %spec.select.i
  br i1 %16, label %17, label %18

17:                                               ; preds = %7
  tail call void (ptr, i32, ptr, ...) @BUG_fl(ptr noundef nonnull @.str.22, i32 noundef 167, ptr noundef nonnull @.str.23) #9
  unreachable

18:                                               ; preds = %7
  store i64 %12, ptr %2, align 8, !tbaa !11
  %.not9.i = icmp eq ptr %10, @strbuf_slopbuf
  br i1 %.not9.i, label %strbuf_setlen.exit, label %19

19:                                               ; preds = %18
  store i8 0, ptr %13, align 1, !tbaa !13
  br label %strbuf_setlen.exit

strbuf_setlen.exit:                               ; preds = %18, %19
  %20 = getelementptr inbounds nuw i8, ptr %0, i64 48
  %21 = load i8, ptr %20, align 8
  %22 = or i8 %21, 1
  store i8 %22, ptr %20, align 8
  %23 = and i8 %21, 2
  %.not13 = icmp eq i8 %23, 0
  br i1 %.not13, label %37, label %24

24:                                               ; preds = %strbuf_setlen.exit
  %25 = load i64, ptr %0, align 8, !tbaa !4
  %.not.i.i = icmp eq i64 %25, 0
  br i1 %.not.i.i, label %strbuf_avail.exit.thread.i, label %strbuf_avail.exit.i

strbuf_avail.exit.i:                              ; preds = %24
  %26 = getelementptr inbounds nuw i8, ptr %0, i64 8
  %27 = load i64, ptr %26, align 8, !tbaa !11
  %.neg.i = add i64 %27, 1
  %.not.i = icmp eq i64 %25, %.neg.i
  br i1 %.not.i, label %strbuf_avail.exit.thread.i, label %strbuf_addch.exit

strbuf_avail.exit.thread.i:                       ; preds = %strbuf_avail.exit.i, %24
  tail call void @strbuf_grow(ptr noundef nonnull %0, i64 noundef 1) #8
  %.phi.trans.insert.i = getelementptr inbounds nuw i8, ptr %0, i64 8
  %.pre.i = load i64, ptr %.phi.trans.insert.i, align 8, !tbaa !11
  %.pre7.i = add i64 %.pre.i, 1
  br label %strbuf_addch.exit

strbuf_addch.exit:                                ; preds = %strbuf_avail.exit.i, %strbuf_avail.exit.thread.i
  %.pre-phi.i = phi i64 [ %.pre7.i, %strbuf_avail.exit.thread.i ], [ %.neg.i, %strbuf_avail.exit.i ]
  %28 = phi i64 [ %.pre.i, %strbuf_avail.exit.thread.i ], [ %27, %strbuf_avail.exit.i ]
  %29 = getelementptr inbounds nuw i8, ptr %0, i64 16
  %30 = load ptr, ptr %29, align 8, !tbaa !12
  %31 = getelementptr inbounds nuw i8, ptr %0, i64 8
  store i64 %.pre-phi.i, ptr %31, align 8, !tbaa !11
  %32 = getelementptr inbounds nuw i8, ptr %30, i64 %28
  store i8 10, ptr %32, align 1, !tbaa !13
  %33 = load ptr, ptr %29, align 8, !tbaa !12
  %34 = load i64, ptr %31, align 8, !tbaa !11
  %35 = getelementptr inbounds nuw i8, ptr %33, i64 %34
  store i8 0, ptr %35, align 1, !tbaa !13
  %36 = load i64, ptr %2, align 8, !tbaa !14
  tail call void @strbuf_addstrings(ptr noundef nonnull %0, ptr noundef nonnull @.str.24, i64 noundef %36) #8
  br label %37

37:                                               ; preds = %strbuf_addch.exit, %strbuf_setlen.exit
  %38 = icmp eq i8 %14, 123
  %39 = load i64, ptr %0, align 8, !tbaa !4
  %.not.i.i14 = icmp eq i64 %39, 0
  br i1 %38, label %40, label %43

40:                                               ; preds = %37
  br i1 %.not.i.i14, label %strbuf_addch.exit23.sink.split, label %strbuf_avail.exit.i15

strbuf_avail.exit.i15:                            ; preds = %40
  %41 = getelementptr inbounds nuw i8, ptr %0, i64 8
  %42 = load i64, ptr %41, align 8, !tbaa !11
  %.neg.i16 = add i64 %42, 1
  %.not.i17 = icmp eq i64 %39, %.neg.i16
  br i1 %.not.i17, label %strbuf_addch.exit23.sink.split, label %strbuf_addch.exit23

43:                                               ; preds = %37
  br i1 %.not.i.i14, label %strbuf_addch.exit23.sink.split, label %strbuf_avail.exit.i25

strbuf_avail.exit.i25:                            ; preds = %43
  %44 = getelementptr inbounds nuw i8, ptr %0, i64 8
  %45 = load i64, ptr %44, align 8, !tbaa !11
  %.neg.i26 = add i64 %45, 1
  %.not.i27 = icmp eq i64 %39, %.neg.i26
  br i1 %.not.i27, label %strbuf_addch.exit23.sink.split, label %strbuf_addch.exit23

strbuf_addch.exit23.sink.split:                   ; preds = %43, %strbuf_avail.exit.i25, %40, %strbuf_avail.exit.i15
  %.sink37.ph = phi i8 [ 125, %strbuf_avail.exit.i15 ], [ 125, %40 ], [ 93, %strbuf_avail.exit.i25 ], [ 93, %43 ]
  tail call void @strbuf_grow(ptr noundef nonnull %0, i64 noundef 1) #8
  %.phi.trans.insert.i30 = getelementptr inbounds nuw i8, ptr %0, i64 8
  %.pre.i31 = load i64, ptr %.phi.trans.insert.i30, align 8, !tbaa !11
  %.pre7.i32 = add i64 %.pre.i31, 1
  br label %strbuf_addch.exit23

strbuf_addch.exit23:                              ; preds = %strbuf_addch.exit23.sink.split, %strbuf_avail.exit.i25, %strbuf_avail.exit.i15
  %.pre-phi.i28.sink = phi i64 [ %.neg.i16, %strbuf_avail.exit.i15 ], [ %.neg.i26, %strbuf_avail.exit.i25 ], [ %.pre7.i32, %strbuf_addch.exit23.sink.split ]
  %.sink40 = phi i64 [ %42, %strbuf_avail.exit.i15 ], [ %45, %strbuf_avail.exit.i25 ], [ %.pre.i31, %strbuf_addch.exit23.sink.split ]
  %.sink37 = phi i8 [ 125, %strbuf_avail.exit.i15 ], [ 93, %strbuf_avail.exit.i25 ], [ %.sink37.ph, %strbuf_addch.exit23.sink.split ]
  %46 = getelementptr inbounds nuw i8, ptr %0, i64 16
  %47 = load ptr, ptr %46, align 8, !tbaa !12
  %48 = getelementptr inbounds nuw i8, ptr %0, i64 8
  store i64 %.pre-phi.i28.sink, ptr %48, align 8, !tbaa !11
  %49 = getelementptr inbounds nuw i8, ptr %47, i64 %.sink40
  store i8 %.sink37, ptr %49, align 1, !tbaa !13
  %50 = load ptr, ptr %46, align 8, !tbaa !12
  %51 = load i64, ptr %48, align 8, !tbaa !11
  %52 = getelementptr inbounds nuw i8, ptr %50, i64 %51
  store i8 0, ptr %52, align 1, !tbaa !13
  ret void
}